target datalayout = "e-m:e-p270:32:32-p271:32:32-p272:64:64-i64:64-i128:128-f80:128-n8:16:32:64-S128"
target triple = "x86_64-pc-linux-gnu"

%struct._zend_array = type { %struct._zend_refcounted_h, %union.anon.6, i32, %union.anon.8, i32, i32, i32, i32, i64, ptr }
%struct._zend_refcounted_h = type { i32, %union.anon.5 }
%union.anon.5 = type { i32 }
%union.anon.6 = type { i32 }
%union.anon.8 = type { ptr }
%struct._zval_struct = type { %union._zend_value, %union.anon, %union.anon.2 }
%union._zend_value = type { i64 }
%union.anon = type { i32 }
%union.anon.2 = type { i32 }
%struct._zend_class_entry = type { i8, ptr, %union.anon.4, i32, i32, i32, i32, ptr, ptr, ptr, %struct._zend_array, %struct._zend_array, %struct._zend_array, ptr, ptr, ptr, ptr, ptr, ptr, ptr, ptr, ptr, ptr, ptr, ptr, ptr, ptr, ptr, ptr, ptr, ptr, ptr, %union.anon.9, ptr, ptr, ptr, ptr, i32, i32, i32, i32, %union.anon.10, ptr, ptr, ptr, ptr, i32, ptr, ptr, %union.anon.11 }
%union.anon.4 = type { ptr }
%union.anon.9 = type { ptr }
%union.anon.10 = type { ptr }
%union.anon.11 = type { %struct.anon.12 }
%struct.anon.12 = type { ptr, i32, i32 }
%struct.anon.0 = type { i8, i8, %union.anon.1 }
%union.anon.1 = type { i16 }

; Function Attrs: alwaysinline nounwind uwtable
define internal zeroext i8 @zval_get_type(ptr noundef %0) #4 {
  %2 = alloca ptr, align 8
  store ptr %0, ptr %2, align 8, !tbaa !63
  %3 = load ptr, ptr %2, align 8, !tbaa !63
  %4 = getelementptr inbounds nuw %struct._zval_struct, ptr %3, i32 0, i32 1
  %5 = getelementptr inbounds nuw %struct.anon.0, ptr %4, i32 0, i32 0
  %6 = load i8, ptr %5, align 8, !tbaa !9
  ret i8 %6
}

; Function Attrs: nounwind uwtable
define hidden void @zend_class_add_ref(ptr noundef %0) #0 {
  %2 = alloca ptr, align 8
  %3 = alloca ptr, align 8
  store ptr %0, ptr %2, align 8, !tbaa !63
  call void @llvm.lifetime.start.p0(i64 8, ptr %3) #14
  %4 = load ptr, ptr %2, align 8, !tbaa !63
  %5 = getelementptr inbounds nuw %struct._zval_struct, ptr %4, i32 0, i32 0
  %6 = load ptr, ptr %5, align 8, !tbaa !9
  store ptr %6, ptr %3, align 8, !tbaa !87
  %7 = load ptr, ptr %2, align 8, !tbaa !63
  %8 = call zeroext i8 @zval_get_type(ptr noundef %7)
  %9 = zext i8 %8 to i32
  %10 = icmp ne i32 %9, 14
  br i1 %10, label %11, label %22

11:                                               ; preds = %1
  %12 = load ptr, ptr %3, align 8, !tbaa !87
  %13 = getelementptr inbounds nuw %struct._zend_class_entry, ptr %12, i32 0, i32 4
  %14 = load i32, ptr %13, align 4, !tbaa !143
  %15 = and i32 %14, 128
  %16 = icmp ne i32 %15, 0
  br i1 %16, label %22, label %17

17:                                               ; preds = %11
  %18 = load ptr, ptr %3, align 8, !tbaa !87
  %19 = getelementptr inbounds nuw %struct._zend_class_entry, ptr %18, i32 0, i32 3
  %20 = load i32, ptr %19, align 8, !tbaa !144
  %21 = add nsw i32 %20, 1
  store i32 %21, ptr %19, align 8, !tbaa !144
  br label %22

22:                                               ; preds = %17, %11, %1
  call void @llvm.lifetime.end.p0(i64 8, ptr %3) #14
  ret void
}