; Function Attrs: mustprogress nofree norecurse nosync nounwind willreturn memory(readwrite, inaccessiblemem: none) uwtable
define hidden void @zend_class_add_ref(ptr noundef readonly captures(none) %0) local_unnamed_addr #7 {
  %2 = load ptr, ptr %0, align 8, !tbaa !23
  %3 = getelementptr inbounds nuw i8, ptr %0, i64 8
  %4 = load i8, ptr %3, align 8, !tbaa !23
  %.not = icmp eq i8 %4, 14
  br i1 %.not, label %13, label %5

5:                                                ; preds = %1
  %6 = getelementptr inbounds nuw i8, ptr %2, i64 28
  %7 = load i32, ptr %6, align 4, !tbaa !118
  %8 = and i32 %7, 128
  %.not4 = icmp eq i32 %8, 0
  br i1 %.not4, label %9, label %13

9:                                                ; preds = %5
  %10 = getelementptr inbounds nuw i8, ptr %2, i64 24
  %11 = load i32, ptr %10, align 8, !tbaa !119
  %12 = add nsw i32 %11, 1
  store i32 %12, ptr %10, align 8, !tbaa !119
  br label %13

13:                                               ; preds = %9, %5, %1
  ret void
}